target datalayout = "e-m:e-p270:32:32-p271:32:32-p272:64:64-i64:64-i128:128-f80:128-n8:16:32:64-S128"
target triple = "x86_64-unknown-linux-gnu"

%"class.std::complex" = type { { double, double } }

; Function Attrs: mustprogress nounwind uwtable
define linkonce_odr noundef { double, double } @_ZNKSt7complexIdE5__repEv(ptr noundef nonnull align 8 dereferenceable(16) %this) #3 comdat align 2 {
entry:
  %retval = alloca { double, double }, align 8
  %this.addr = alloca ptr, align 8
  store ptr %this, ptr %this.addr, align 8, !tbaa !7
  %this1 = load ptr, ptr %this.addr, align 8
  %_M_value = getelementptr inbounds nuw %"class.std::complex", ptr %this1, i32 0, i32 0
  %_M_value.realp = getelementptr inbounds nuw { double, double }, ptr %_M_value, i32 0, i32 0
  %_M_value.real = load double, ptr %_M_value.realp, align 8
  %_M_value.imagp = getelementptr inbounds nuw { double, double }, ptr %_M_value, i32 0, i32 1
  %_M_value.imag = load double, ptr %_M_value.imagp, align 8
  %retval.realp = getelementptr inbounds nuw { double, double }, ptr %retval, i32 0, i32 0
  %retval.imagp = getelementptr inbounds nuw { double, double }, ptr %retval, i32 0, i32 1
  store double %_M_value.real, ptr %retval.realp, align 8
  store double %_M_value.imag, ptr %retval.imagp, align 8
  %0 = load { double, double }, ptr %retval, align 8
  ret { double, double } %0
}

; Function Attrs: mustprogress nounwind uwtable
define linkonce_odr noundef nonnull align 8 dereferenceable(16) ptr @_ZNSt7complexIdEdVEd(ptr noundef nonnull align 8 dereferenceable(16) %this, double noundef %__d) #3 comdat align 2 {
entry:
  %this.addr = alloca ptr, align 8
  %__d.addr = alloca double, align 8
  store ptr %this, ptr %this.addr, align 8, !tbaa !7
  store double %__d, ptr %__d.addr, align 8, !tbaa !3
  %this1 = load ptr, ptr %this.addr, align 8
  %0 = load double, ptr %__d.addr, align 8, !tbaa !3
  %_M_value = getelementptr inbounds nuw %"class.std::complex", ptr %this1, i32 0, i32 0
  %_M_value.realp = getelementptr inbounds nuw { double, double }, ptr %_M_value, i32 0, i32 0
  %_M_value.real = load double, ptr %_M_value.realp, align 8
  %_M_value.imagp = getelementptr inbounds nuw { double, double }, ptr %_M_value, i32 0, i32 1
  %_M_value.imag = load double, ptr %_M_value.imagp, align 8
  %1 = fdiv double %_M_value.real, %0
  %2 = fdiv double %_M_value.imag, %0
  %_M_value.realp2 = getelementptr inbounds nuw { double, double }, ptr %_M_value, i32 0, i32 0
  %_M_value.imagp3 = getelementptr inbounds nuw { double, double }, ptr %_M_value, i32 0, i32 1
  store double %1, ptr %_M_value.realp2, align 8
  store double %2, ptr %_M_value.imagp3, align 8
  ret ptr %this1
}

; Function Attrs: mustprogress nounwind uwtable
define linkonce_odr noundef nonnull align 8 dereferenceable(16) ptr @_ZNSt7complexIdEmLEd(ptr noundef nonnull align 8 dereferenceable(16) %this, double noundef %__d) #3 comdat align 2 {
entry:
  %this.addr = alloca ptr, align 8
  %__d.addr = alloca double, align 8
  store ptr %this, ptr %this.addr, align 8, !tbaa !7
  store double %__d, ptr %__d.addr, align 8, !tbaa !3
  %this1 = load ptr, ptr %this.addr, align 8
  %0 = load double, ptr %__d.addr, align 8, !tbaa !3
  %_M_value = getelementptr inbounds nuw %"class.std::complex", ptr %this1, i32 0, i32 0
  %_M_value.realp = getelementptr inbounds nuw { double, double }, ptr %_M_value, i32 0, i32 0
  %_M_value.real = load double, ptr %_M_value.realp, align 8
  %_M_value.imagp = getelementptr inbounds nuw { double, double }, ptr %_M_value, i32 0, i32 1
  %_M_value.imag = load double, ptr %_M_value.imagp, align 8
  %mul.rl = fmul double %_M_value.real, %0
  %mul.il = fmul double %_M_value.imag, %0
  %_M_value.realp2 = getelementptr inbounds nuw { double, double }, ptr %_M_value, i32 0, i32 0
  %_M_value.imagp3 = getelementptr inbounds nuw { double, double }, ptr %_M_value, i32 0, i32 1
  store double %mul.rl, ptr %_M_value.realp2, align 8
  store double %mul.il, ptr %_M_value.imagp3, align 8
  ret ptr %this1
}

; Function Attrs: mustprogress nounwind uwtable
define linkonce_odr noundef nonnull align 8 dereferenceable(16) ptr @_ZNSt7complexIdEmIIdEERS0_RKS_IT_E(ptr noundef nonnull align 8 dereferenceable(16) %this, ptr noundef nonnull align 8 dereferenceable(16) %__z) #3 comdat align 2 {
entry:
  %this.addr = alloca ptr, align 8
  %__z.addr = alloca ptr, align 8
  store ptr %this, ptr %this.addr, align 8, !tbaa !7
  store ptr %__z, ptr %__z.addr, align 8, !tbaa !7
  %this1 = load ptr, ptr %this.addr, align 8
  %0 = load ptr, ptr %__z.addr, align 8, !tbaa !7
  %call = call noundef { double, double } @_ZNKSt7complexIdE5__repEv(ptr noundef nonnull align 8 dereferenceable(16) %0)
  %1 = extractvalue { double, double } %call, 0
  %2 = extractvalue { double, double } %call, 1
  %_M_value = getelementptr inbounds nuw %"class.std::complex", ptr %this1, i32 0, i32 0
  %_M_value.realp = getelementptr inbounds nuw { double, double }, ptr %_M_value, i32 0, i32 0
  %_M_value.real = load double, ptr %_M_value.realp, align 8
  %_M_value.imagp = getelementptr inbounds nuw { double, double }, ptr %_M_value, i32 0, i32 1
  %_M_value.imag = load double, ptr %_M_value.imagp, align 8
  %sub.r = fsub double %_M_value.real, %1
  %sub.i = fsub double %_M_value.imag, %2
  %_M_value.realp2 = getelementptr inbounds nuw { double, double }, ptr %_M_value, i32 0, i32 0
  %_M_value.imagp3 = getelementptr inbounds nuw { double, double }, ptr %_M_value, i32 0, i32 1
  store double %sub.r, ptr %_M_value.realp2, align 8
  store double %sub.i, ptr %_M_value.imagp3, align 8
  ret ptr %this1
}

; Function Attrs: inlinehint mustprogress uwtable
define linkonce_odr { double, double } @_ZStdvIdESt7complexIT_ERKS2_RKS1_(ptr noundef nonnull align 8 dereferenceable(16) %__x, ptr noundef nonnull align 8 dereferenceable(8) %__y) #2 comdat {
entry:
  %retval = alloca %"class.std::complex", align 8
  %__x.addr = alloca ptr, align 8
  %__y.addr = alloca ptr, align 8
  store ptr %__x, ptr %__x.addr, align 8, !tbaa !7
  store ptr %__y, ptr %__y.addr, align 8, !tbaa !7
  %0 = load ptr, ptr %__x.addr, align 8, !tbaa !7
  call void @llvm.memcpy.p0.p0.i64(ptr align 8 %retval, ptr align 8 %0, i64 16, i1 false), !tbaa.struct !18
  %1 = load ptr, ptr %__y.addr, align 8, !tbaa !7
  %2 = load double, ptr %1, align 8, !tbaa !3
  %call = call noundef nonnull align 8 dereferenceable(16) ptr @_ZNSt7complexIdEdVEd(ptr noundef nonnull align 8 dereferenceable(16) %retval, double noundef %2)
  %coerce.dive = getelementptr inbounds nuw %"class.std::complex", ptr %retval, i32 0, i32 0
  %3 = load { double, double }, ptr %coerce.dive, align 8
  ret { double, double } %3
}

; Function Attrs: inlinehint mustprogress uwtable
define linkonce_odr { double, double } @_ZStmlIdESt7complexIT_ERKS1_RKS2_(ptr noundef nonnull align 8 dereferenceable(8) %__x, ptr noundef nonnull align 8 dereferenceable(16) %__y) #2 comdat {
entry:
  %retval = alloca %"class.std::complex", align 8
  %__x.addr = alloca ptr, align 8
  %__y.addr = alloca ptr, align 8
  store ptr %__x, ptr %__x.addr, align 8, !tbaa !7
  store ptr %__y, ptr %__y.addr, align 8, !tbaa !7
  %0 = load ptr, ptr %__y.addr, align 8, !tbaa !7
  call void @llvm.memcpy.p0.p0.i64(ptr align 8 %retval, ptr align 8 %0, i64 16, i1 false), !tbaa.struct !18
  %1 = load ptr, ptr %__x.addr, align 8, !tbaa !7
  %2 = load double, ptr %1, align 8, !tbaa !3
  %call = call noundef nonnull align 8 dereferenceable(16) ptr @_ZNSt7complexIdEmLEd(ptr noundef nonnull align 8 dereferenceable(16) %retval, double noundef %2)
  %coerce.dive = getelementptr inbounds nuw %"class.std::complex", ptr %retval, i32 0, i32 0
  %3 = load { double, double }, ptr %coerce.dive, align 8
  ret { double, double } %3
}

; Function Attrs: inlinehint mustprogress uwtable
define linkonce_odr { double, double } @_ZStmiIdESt7complexIT_ERKS2_S4_(ptr noundef nonnull align 8 dereferenceable(16) %__x, ptr noundef nonnull align 8 dereferenceable(16) %__y) #2 comdat {
entry:
  %retval = alloca %"class.std::complex", align 8
  %__x.addr = alloca ptr, align 8
  %__y.addr = alloca ptr, align 8
  store ptr %__x, ptr %__x.addr, align 8, !tbaa !7
  store ptr %__y, ptr %__y.addr, align 8, !tbaa !7
  %0 = load ptr, ptr %__x.addr, align 8, !tbaa !7
  call void @llvm.memcpy.p0.p0.i64(ptr align 8 %retval, ptr align 8 %0, i64 16, i1 false), !tbaa.struct !18
  %1 = load ptr, ptr %__y.addr, align 8, !tbaa !7
  %call = call noundef nonnull align 8 dereferenceable(16) ptr @_ZNSt7complexIdEmIIdEERS0_RKS_IT_E(ptr noundef nonnull align 8 dereferenceable(16) %retval, ptr noundef nonnull align 8 dereferenceable(16) %1)
  %coerce.dive = getelementptr inbounds nuw %"class.std::complex", ptr %retval, i32 0, i32 0
  %2 = load { double, double }, ptr %coerce.dive, align 8
  ret { double, double } %2
}

; Function Attrs: mustprogress uwtable
define internal noundef double @_ZN8QuantLib12_GLOBAL__N_129modifiedBesselFunction_k_implIdNS0_10UnweightedEEET_dRKS3_(double noundef %nu, ptr noundef nonnull align 8 dereferenceable(8) %x) #0 {
entry:
  %nu.addr = alloca double, align 8
  %x.addr = alloca ptr, align 8
  store double %nu, ptr %nu.addr, align 8, !tbaa !3
  store ptr %x, ptr %x.addr, align 8, !tbaa !7
  %0 = load double, ptr %nu.addr, align 8, !tbaa !3
  %fneg = fneg double %0
  %1 = load ptr, ptr %x.addr, align 8, !tbaa !7
  %call = call noundef double @_ZN8QuantLib12_GLOBAL__N_129modifiedBesselFunction_i_implIdNS0_10UnweightedEEET_dRKS3_(double noundef %fneg, ptr noundef nonnull align 8 dereferenceable(8) %1)
  %2 = load double, ptr %nu.addr, align 8, !tbaa !3
  %3 = load ptr, ptr %x.addr, align 8, !tbaa !7
  %call1 = call noundef double @_ZN8QuantLib12_GLOBAL__N_129modifiedBesselFunction_i_implIdNS0_10UnweightedEEET_dRKS3_(double noundef %2, ptr noundef nonnull align 8 dereferenceable(8) %3)
  %sub = fsub double %call, %call1
  %mul = fmul double 0x3FF921FB54442D18, %sub
  %4 = load double, ptr %nu.addr, align 8, !tbaa !3
  %mul2 = fmul double 0x400921FB54442D18, %4
  %call3 = call double @sin(double noundef %mul2) #13, !tbaa !11
  %div = fdiv double %mul, %call3
  ret double %div
}

; Function Attrs: mustprogress uwtable
define internal { double, double } @_ZN8QuantLib12_GLOBAL__N_129modifiedBesselFunction_k_implISt7complexIdENS0_10UnweightedEEET_dRKS5_(double noundef %nu, ptr noundef nonnull align 8 dereferenceable(16) %x) #0 {
entry:
  %retval = alloca %"class.std::complex", align 8
  %nu.addr = alloca double, align 8
  %x.addr = alloca ptr, align 8
  %ref.tmp = alloca %"class.std::complex", align 8
  %ref.tmp1 = alloca double, align 8
  %ref.tmp2 = alloca %"class.std::complex", align 8
  %ref.tmp3 = alloca %"class.std::complex", align 8
  %ref.tmp4 = alloca %"class.std::complex", align 8
  %ref.tmp11 = alloca double, align 8
  store double %nu, ptr %nu.addr, align 8, !tbaa !3
  store ptr %x, ptr %x.addr, align 8, !tbaa !7
  call void @llvm.lifetime.start.p0(i64 16, ptr %ref.tmp) #13
  call void @llvm.lifetime.start.p0(i64 8, ptr %ref.tmp1) #13
  store double 0x3FF921FB54442D18, ptr %ref.tmp1, align 8, !tbaa !3
  call void @llvm.lifetime.start.p0(i64 16, ptr %ref.tmp2) #13
  call void @llvm.lifetime.start.p0(i64 16, ptr %ref.tmp3) #13
  %0 = load double, ptr %nu.addr, align 8, !tbaa !3
  %fneg = fneg double %0
  %1 = load ptr, ptr %x.addr, align 8, !tbaa !7
  %call = call { double, double } @_ZN8QuantLib12_GLOBAL__N_129modifiedBesselFunction_i_implISt7complexIdENS0_10UnweightedEEET_dRKS5_(double noundef %fneg, ptr noundef nonnull align 8 dereferenceable(16) %1)
  %coerce.dive = getelementptr inbounds nuw %"class.std::complex", ptr %ref.tmp3, i32 0, i32 0
  %2 = getelementptr inbounds nuw { double, double }, ptr %coerce.dive, i32 0, i32 0
  %3 = extractvalue { double, double } %call, 0
  store double %3, ptr %2, align 8
  %4 = getelementptr inbounds nuw { double, double }, ptr %coerce.dive, i32 0, i32 1
  %5 = extractvalue { double, double } %call, 1
  store double %5, ptr %4, align 8
  call void @llvm.lifetime.start.p0(i64 16, ptr %ref.tmp4) #13
  %6 = load double, ptr %nu.addr, align 8, !tbaa !3
  %7 = load ptr, ptr %x.addr, align 8, !tbaa !7
  %call5 = call { double, double } @_ZN8QuantLib12_GLOBAL__N_129modifiedBesselFunction_i_implISt7complexIdENS0_10UnweightedEEET_dRKS5_(double noundef %6, ptr noundef nonnull align 8 dereferenceable(16) %7)
  %coerce.dive6 = getelementptr inbounds nuw %"class.std::complex", ptr %ref.tmp4, i32 0, i32 0
  %8 = getelementptr inbounds nuw { double, double }, ptr %coerce.dive6, i32 0, i32 0
  %9 = extractvalue { double, double } %call5, 0
  store double %9, ptr %8, align 8
  %10 = getelementptr inbounds nuw { double, double }, ptr %coerce.dive6, i32 0, i32 1
  %11 = extractvalue { double, double } %call5, 1
  store double %11, ptr %10, align 8
  %call7 = call { double, double } @_ZStmiIdESt7complexIT_ERKS2_S4_(ptr noundef nonnull align 8 dereferenceable(16) %ref.tmp3, ptr noundef nonnull align 8 dereferenceable(16) %ref.tmp4)
  %coerce.dive8 = getelementptr inbounds nuw %"class.std::complex", ptr %ref.tmp2, i32 0, i32 0
  %12 = getelementptr inbounds nuw { double, double }, ptr %coerce.dive8, i32 0, i32 0
  %13 = extractvalue { double, double } %call7, 0
  store double %13, ptr %12, align 8
  %14 = getelementptr inbounds nuw { double, double }, ptr %coerce.dive8, i32 0, i32 1
  %15 = extractvalue { double, double } %call7, 1
  store double %15, ptr %14, align 8
  %call9 = call { double, double } @_ZStmlIdESt7complexIT_ERKS1_RKS2_(ptr noundef nonnull align 8 dereferenceable(8) %ref.tmp1, ptr noundef nonnull align 8 dereferenceable(16) %ref.tmp2)
  %coerce.dive10 = getelementptr inbounds nuw %"class.std::complex", ptr %ref.tmp, i32 0, i32 0
  %16 = getelementptr inbounds nuw { double, double }, ptr %coerce.dive10, i32 0, i32 0
  %17 = extractvalue { double, double } %call9, 0
  store double %17, ptr %16, align 8
  %18 = getelementptr inbounds nuw { double, double }, ptr %coerce.dive10, i32 0, i32 1
  %19 = extractvalue { double, double } %call9, 1
  store double %19, ptr %18, align 8
  call void @llvm.lifetime.start.p0(i64 8, ptr %ref.tmp11) #13
  %20 = load double, ptr %nu.addr, align 8, !tbaa !3
  %mul = fmul double 0x400921FB54442D18, %20
  %call12 = call double @sin(double noundef %mul) #13, !tbaa !11
  store double %call12, ptr %ref.tmp11, align 8, !tbaa !3
  %call13 = call { double, double } @_ZStdvIdESt7complexIT_ERKS2_RKS1_(ptr noundef nonnull align 8 dereferenceable(16) %ref.tmp, ptr noundef nonnull align 8 dereferenceable(8) %ref.tmp11)
  %coerce.dive14 = getelementptr inbounds nuw %"class.std::complex", ptr %retval, i32 0, i32 0
  %21 = getelementptr inbounds nuw { double, double }, ptr %coerce.dive14, i32 0, i32 0
  %22 = extractvalue { double, double } %call13, 0
  store double %22, ptr %21, align 8
  %23 = getelementptr inbounds nuw { double, double }, ptr %coerce.dive14, i32 0, i32 1
  %24 = extractvalue { double, double } %call13, 1
  store double %24, ptr %23, align 8
  call void @llvm.lifetime.end.p0(i64 8, ptr %ref.tmp11) #13
  call void @llvm.lifetime.end.p0(i64 16, ptr %ref.tmp4) #13
  call void @llvm.lifetime.end.p0(i64 16, ptr %ref.tmp3) #13
  call void @llvm.lifetime.end.p0(i64 16, ptr %ref.tmp2) #13
  call void @llvm.lifetime.end.p0(i64 8, ptr %ref.tmp1) #13
  call void @llvm.lifetime.end.p0(i64 16, ptr %ref.tmp) #13
  %coerce.dive15 = getelementptr inbounds nuw %"class.std::complex", ptr %retval, i32 0, i32 0
  %25 = load { double, double }, ptr %coerce.dive15, align 8
  ret { double, double } %25
}

; Function Attrs: mustprogress nounwind uwtable
define linkonce_odr void @_ZNSt7complexIdEC2Edd(ptr noundef nonnull align 8 dereferenceable(16) %this, double noundef %__r, double noundef %__i) unnamed_addr #3 comdat align 2 {
entry:
  %this.addr = alloca ptr, align 8
  %__r.addr = alloca double, align 8
  %__i.addr = alloca double, align 8
  store ptr %this, ptr %this.addr, align 8, !tbaa !7
  store double %__r, ptr %__r.addr, align 8, !tbaa !3
  store double %__i, ptr %__i.addr, align 8, !tbaa !3
  %this1 = load ptr, ptr %this.addr, align 8
  %_M_value = getelementptr inbounds nuw %"class.std::complex", ptr %this1, i32 0, i32 0
  %0 = load double, ptr %__r.addr, align 8, !tbaa !3
  %1 = load double, ptr %__i.addr, align 8, !tbaa !3
  %_M_value.realp = getelementptr inbounds nuw { double, double }, ptr %_M_value, i32 0, i32 0
  %_M_value.imagp = getelementptr inbounds nuw { double, double }, ptr %_M_value, i32 0, i32 1
  store double %0, ptr %_M_value.realp, align 8
  store double %1, ptr %_M_value.imagp, align 8
  ret void
}

; Function Attrs: mustprogress uwtable
define noundef double @_ZN8QuantLib24modifiedBesselFunction_kEdd(double noundef %nu, double noundef %x) #0 {
entry:
  %nu.addr = alloca double, align 8
  %x.addr = alloca double, align 8
  store double %nu, ptr %nu.addr, align 8, !tbaa !3
  store double %x, ptr %x.addr, align 8, !tbaa !3
  %0 = load double, ptr %nu.addr, align 8, !tbaa !3
  %call = call noundef double @_ZN8QuantLib12_GLOBAL__N_129modifiedBesselFunction_k_implIdNS0_10UnweightedEEET_dRKS3_(double noundef %0, ptr noundef nonnull align 8 dereferenceable(8) %x.addr)
  ret double %call
}

; Function Attrs: mustprogress nounwind uwtable
define linkonce_odr noundef double @_ZNKSt7complexIdE4realB5cxx11Ev(ptr noundef nonnull align 8 dereferenceable(16) %this) #3 comdat align 2 {
entry:
  %this.addr = alloca ptr, align 8
  store ptr %this, ptr %this.addr, align 8, !tbaa !7
  %this1 = load ptr, ptr %this.addr, align 8
  %_M_value = getelementptr inbounds nuw %"class.std::complex", ptr %this1, i32 0, i32 0
  %_M_value.realp = getelementptr inbounds nuw { double, double }, ptr %_M_value, i32 0, i32 0
  %0 = load double, ptr %_M_value.realp, align 8, !tbaa !3
  ret double %0
}

; Function Attrs: mustprogress nounwind uwtable
define linkonce_odr noundef double @_ZNKSt7complexIdE4imagB5cxx11Ev(ptr noundef nonnull align 8 dereferenceable(16) %this) #3 comdat align 2 {
entry:
  %this.addr = alloca ptr, align 8
  store ptr %this, ptr %this.addr, align 8, !tbaa !7
  %this1 = load ptr, ptr %this.addr, align 8
  %_M_value = getelementptr inbounds nuw %"class.std::complex", ptr %this1, i32 0, i32 0
  %_M_value.imagp = getelementptr inbounds nuw { double, double }, ptr %_M_value, i32 0, i32 1
  %0 = load double, ptr %_M_value.imagp, align 8, !tbaa !3
  ret double %0
}

; Function Attrs: mustprogress uwtable
define { double, double } @_ZN8QuantLib24modifiedBesselFunction_kEdRKSt7complexIdE(double noundef %nu, ptr noundef nonnull align 8 dereferenceable(16) %z) #0 {
entry:
  %retval = alloca %"class.std::complex", align 8
  %nu.addr = alloca double, align 8
  %z.addr = alloca ptr, align 8
  store double %nu, ptr %nu.addr, align 8, !tbaa !3
  store ptr %z, ptr %z.addr, align 8, !tbaa !7
  %0 = load ptr, ptr %z.addr, align 8, !tbaa !7
  %call = call noundef double @_ZNKSt7complexIdE4imagB5cxx11Ev(ptr noundef nonnull align 8 dereferenceable(16) %0)
  %cmp = fcmp oeq double %call, 0.000000e+00
  br i1 %cmp, label %land.lhs.true, label %if.end

land.lhs.true:                                    ; preds = %entry
  %1 = load ptr, ptr %z.addr, align 8, !tbaa !7
  %call1 = call noundef double @_ZNKSt7complexIdE4realB5cxx11Ev(ptr noundef nonnull align 8 dereferenceable(16) %1)
  %cmp2 = fcmp oge double %call1, 0.000000e+00
  br i1 %cmp2, label %if.then, label %if.end

if.then:                                          ; preds = %land.lhs.true
  %2 = load double, ptr %nu.addr, align 8, !tbaa !3
  %3 = load ptr, ptr %z.addr, align 8, !tbaa !7
  %call3 = call noundef double @_ZNKSt7complexIdE4realB5cxx11Ev(ptr noundef nonnull align 8 dereferenceable(16) %3)
  %call4 = call noundef double @_ZN8QuantLib24modifiedBesselFunction_kEdd(double noundef %2, double noundef %call3)
  call void @_ZNSt7complexIdEC2Edd(ptr noundef nonnull align 8 dereferenceable(16) %retval, double noundef %call4, double noundef 0.000000e+00)
  br label %return

if.end:                                           ; preds = %land.lhs.true, %entry
  %4 = load double, ptr %nu.addr, align 8, !tbaa !3
  %5 = load ptr, ptr %z.addr, align 8, !tbaa !7
  %call5 = call { double, double } @_ZN8QuantLib12_GLOBAL__N_129modifiedBesselFunction_k_implISt7complexIdENS0_10UnweightedEEET_dRKS5_(double noundef %4, ptr noundef nonnull align 8 dereferenceable(16) %5)
  %coerce.dive = getelementptr inbounds nuw %"class.std::complex", ptr %retval, i32 0, i32 0
  %6 = getelementptr inbounds nuw { double, double }, ptr %coerce.dive, i32 0, i32 0
  %7 = extractvalue { double, double } %call5, 0
  store double %7, ptr %6, align 8
  %8 = getelementptr inbounds nuw { double, double }, ptr %coerce.dive, i32 0, i32 1
  %9 = extractvalue { double, double } %call5, 1
  store double %9, ptr %8, align 8
  br label %return

return:                                           ; preds = %if.end, %if.then
  %coerce.dive6 = getelementptr inbounds nuw %"class.std::complex", ptr %retval, i32 0, i32 0
  %10 = load { double, double }, ptr %coerce.dive6, align 8
  ret { double, double } %10
}