; Function Attrs: mustprogress uwtable
define { double, double } @_ZN8QuantLib24modifiedBesselFunction_kEdRKSt7complexIdE(double noundef %nu, ptr nocapture noundef nonnull readonly align 8 dereferenceable(16) %z) local_unnamed_addr #0 {
entry:
  %x.addr.i = alloca double, align 8
  %_M_value.imagp.i = getelementptr inbounds nuw i8, ptr %z, i64 8
  %0 = load double, ptr %_M_value.imagp.i, align 8, !tbaa !3
  %cmp = fcmp oeq double %0, 0.000000e+00
  br i1 %cmp, label %land.lhs.true, label %if.end

land.lhs.true:                                    ; preds = %entry
  %1 = load double, ptr %z, align 8, !tbaa !3
  %cmp2 = fcmp ult double %1, 0.000000e+00
  br i1 %cmp2, label %if.end, label %if.then

if.then:                                          ; preds = %land.lhs.true
  call void @llvm.lifetime.start.p0(i64 8, ptr nonnull %x.addr.i)
  store double %1, ptr %x.addr.i, align 8, !tbaa !3
  %fneg.i.i = fneg double %nu
  %call.i.i = call fastcc noundef double @_ZN8QuantLib12_GLOBAL__N_129modifiedBesselFunction_i_implIdNS0_10UnweightedEEET_dRKS3_(double noundef %fneg.i.i, ptr noundef nonnull readonly align 8 dereferenceable(8) %x.addr.i)
  %call1.i.i = call fastcc noundef double @_ZN8QuantLib12_GLOBAL__N_129modifiedBesselFunction_i_implIdNS0_10UnweightedEEET_dRKS3_(double noundef %nu, ptr noundef nonnull readonly align 8 dereferenceable(8) %x.addr.i)
  %sub.i.i = fsub double %call.i.i, %call1.i.i
  %mul.i.i = fmul double %sub.i.i, 0x3FF921FB54442D18
  %mul2.i.i = fmul double %nu, 0x400921FB54442D18
  %call3.i.i = tail call double @sin(double noundef %mul2.i.i) #17, !tbaa !20
  %div.i.i = fdiv double %mul.i.i, %call3.i.i
  call void @llvm.lifetime.end.p0(i64 8, ptr nonnull %x.addr.i)
  br label %return

if.end:                                           ; preds = %land.lhs.true, %entry
  %fneg.i = fneg double %nu
  %call.i = tail call fastcc { double, double } @_ZN8QuantLib12_GLOBAL__N_129modifiedBesselFunction_i_implISt7complexIdENS0_10UnweightedEEET_dRKS5_(double noundef %fneg.i, ptr noundef nonnull readonly align 8 dereferenceable(16) %z)
  %2 = extractvalue { double, double } %call.i, 0
  %3 = extractvalue { double, double } %call.i, 1
  %call5.i = tail call fastcc { double, double } @_ZN8QuantLib12_GLOBAL__N_129modifiedBesselFunction_i_implISt7complexIdENS0_10UnweightedEEET_dRKS5_(double noundef %nu, ptr noundef nonnull readonly align 8 dereferenceable(16) %z)
  %4 = extractvalue { double, double } %call5.i, 0
  %5 = extractvalue { double, double } %call5.i, 1
  %sub.r.i.i.i = fsub double %2, %4
  %sub.i.i.i.i = fsub double %3, %5
  %mul.rl.i.i.i = fmul double %sub.r.i.i.i, 0x3FF921FB54442D18
  %mul.il.i.i.i = fmul double %sub.i.i.i.i, 0x3FF921FB54442D18
  %mul.i = fmul double %nu, 0x400921FB54442D18
  %call12.i = tail call double @sin(double noundef %mul.i) #17, !tbaa !20
  %6 = fdiv double %mul.rl.i.i.i, %call12.i
  %7 = fdiv double %mul.il.i.i.i, %call12.i
  br label %return

return:                                           ; preds = %if.end, %if.then
  %retval.sroa.3.0 = phi double [ %7, %if.end ], [ 0.000000e+00, %if.then ]
  %retval.sroa.0.0 = phi double [ %6, %if.end ], [ %div.i.i, %if.then ]
  %.fca.0.insert = insertvalue { double, double } poison, double %retval.sroa.0.0, 0
  %.fca.1.insert = insertvalue { double, double } %.fca.0.insert, double %retval.sroa.3.0, 1
  ret { double, double } %.fca.1.insert
}